; Function Attrs: mustprogress uwtable
define void @_ZN6casadi4OptiC2ERKS0_(ptr noundef nonnull align 8 dereferenceable(8) %0, ptr noundef nonnull align 8 dereferenceable(8) %1) unnamed_addr #3 align 2 personality ptr @__gxx_personality_v0 {
  tail call void @_ZN6casadi12SharedObjectC2ERKS0_(ptr noundef nonnull align 8 dereferenceable(8) %0, ptr noundef nonnull align 8 dereferenceable(8) %1)
  invoke void @_ZN6casadi4Opti14callback_classEv(ptr noundef nonnull align 8 dereferenceable(8) %0)
          to label %3 unwind label %4

3:                                                ; preds = %2
  ret void

4:                                                ; preds = %2
  %5 = landingpad { ptr, i32 }
          cleanup
  tail call void @_ZN6casadi12SharedObjectD2Ev(ptr noundef nonnull align 8 dereferenceable(8) %0) #17
  resume { ptr, i32 } %5
}